target datalayout = "e-m:e-p270:32:32-p271:32:32-p272:64:64-i64:64-i128:128-f80:128-n8:16:32:64-S128"
target triple = "x86_64-pc-linux-gnu"

%struct.dtTileCacheParams = type { [3 x float], float, float, i32, i32, float, float, float, float, i32, i32 }
%class.dtTileCache = type { i32, i32, ptr, ptr, ptr, i32, i32, %struct.dtTileCacheParams, ptr, ptr, ptr, ptr, ptr, [64 x %"struct.dtTileCache::ObstacleRequest"], i32, [64 x i32], i32 }
%"struct.dtTileCache::ObstacleRequest" = type { i32, i32 }
%struct.dtTileCacheObstacle = type { %union.anon.0, [8 x i32], [8 x i32], i16, i8, i8, i8, i8, ptr }
%union.anon.0 = type { %struct.dtObstacleOrientedBox }
%struct.dtObstacleOrientedBox = type { [3 x float], [3 x float], [2 x float] }

; Function Attrs: mustprogress nounwind uwtable
define linkonce_odr dso_local noundef i32 @_Z11duDarkenColj(i32 noundef %0) #0 comdat {
  %2 = alloca i32, align 4
  store i32 %0, ptr %2, align 4
  %3 = load i32, ptr %2, align 4
  %4 = lshr i32 %3, 1
  %5 = and i32 %4, 8355711
  %6 = load i32, ptr %2, align 4
  %7 = and i32 %6, -16777216
  %8 = or i32 %5, %7
  ret i32 %8
}

; Function Attrs: mustprogress nounwind uwtable
define linkonce_odr dso_local noundef i32 @_Z6duRGBAiiii(i32 noundef %0, i32 noundef %1, i32 noundef %2, i32 noundef %3) #0 comdat {
  %5 = alloca i32, align 4
  %6 = alloca i32, align 4
  %7 = alloca i32, align 4
  %8 = alloca i32, align 4
  store i32 %0, ptr %5, align 4
  store i32 %1, ptr %6, align 4
  store i32 %2, ptr %7, align 4
  store i32 %3, ptr %8, align 4
  %9 = load i32, ptr %5, align 4
  %10 = load i32, ptr %6, align 4
  %11 = shl i32 %10, 8
  %12 = or i32 %9, %11
  %13 = load i32, ptr %7, align 4
  %14 = shl i32 %13, 16
  %15 = or i32 %12, %14
  %16 = load i32, ptr %8, align 4
  %17 = shl i32 %16, 24
  %18 = or i32 %15, %17
  ret i32 %18
}

; Function Attrs: mustprogress nounwind uwtable
define linkonce_odr dso_local noundef ptr @_ZNK11dtTileCache11getObstacleEi(ptr noundef nonnull align 8 dereferenceable(912) %0, i32 noundef %1) #0 comdat align 2 {
  %3 = alloca ptr, align 8
  %4 = alloca i32, align 4
  store ptr %0, ptr %3, align 8
  store i32 %1, ptr %4, align 4
  %5 = load ptr, ptr %3, align 8
  %6 = getelementptr inbounds %class.dtTileCache, ptr %5, i32 0, i32 11
  %7 = load ptr, ptr %6, align 8
  %8 = load i32, ptr %4, align 4
  %9 = sext i32 %8 to i64
  %10 = getelementptr inbounds %struct.dtTileCacheObstacle, ptr %7, i64 %9
  ret ptr %10
}

; Function Attrs: mustprogress nounwind uwtable
define linkonce_odr dso_local noundef i32 @_ZNK11dtTileCache16getObstacleCountEv(ptr noundef nonnull align 8 dereferenceable(912) %0) #0 comdat align 2 {
  %2 = alloca ptr, align 8
  store ptr %0, ptr %2, align 8
  %3 = load ptr, ptr %2, align 8
  %4 = getelementptr inbounds %class.dtTileCache, ptr %3, i32 0, i32 7
  %5 = getelementptr inbounds %struct.dtTileCacheParams, ptr %4, i32 0, i32 10
  %6 = load i32, ptr %5, align 8
  ret i32 %6
}

; Function Attrs: mustprogress uwtable
define dso_local void @_Z13drawObstaclesP11duDebugDrawPK11dtTileCache(ptr noundef %0, ptr noundef %1) #5 {
  %3 = alloca ptr, align 8
  %4 = alloca ptr, align 8
  %5 = alloca i32, align 4
  %6 = alloca ptr, align 8
  %7 = alloca [3 x float], align 4
  %8 = alloca [3 x float], align 4
  %9 = alloca i32, align 4
  store ptr %0, ptr %3, align 8
  store ptr %1, ptr %4, align 8
  store i32 0, ptr %5, align 4
  br label %10

10:                                               ; preds = %85, %2
  %11 = load i32, ptr %5, align 4
  %12 = load ptr, ptr %4, align 8
  %13 = call noundef i32 @_ZNK11dtTileCache16getObstacleCountEv(ptr noundef nonnull align 8 dereferenceable(912) %12)
  %14 = icmp slt i32 %11, %13
  br i1 %14, label %15, label %88

15:                                               ; preds = %10
  %16 = load ptr, ptr %4, align 8
  %17 = load i32, ptr %5, align 4
  %18 = call noundef ptr @_ZNK11dtTileCache11getObstacleEi(ptr noundef nonnull align 8 dereferenceable(912) %16, i32 noundef %17)
  store ptr %18, ptr %6, align 8
  %19 = load ptr, ptr %6, align 8
  %20 = getelementptr inbounds %struct.dtTileCacheObstacle, ptr %19, i32 0, i32 5
  %21 = load i8, ptr %20, align 1
  %22 = zext i8 %21 to i32
  %23 = icmp eq i32 %22, 0
  br i1 %23, label %24, label %25

24:                                               ; preds = %15
  br label %85

25:                                               ; preds = %15
  %26 = load ptr, ptr %4, align 8
  %27 = load ptr, ptr %6, align 8
  %28 = getelementptr inbounds [3 x float], ptr %7, i64 0, i64 0
  %29 = getelementptr inbounds [3 x float], ptr %8, i64 0, i64 0
  call void @_ZNK11dtTileCache17getObstacleBoundsEPK19dtTileCacheObstaclePfS3_(ptr noundef nonnull align 8 dereferenceable(912) %26, ptr noundef %27, ptr noundef %28, ptr noundef %29)
  store i32 0, ptr %9, align 4
  %30 = load ptr, ptr %6, align 8
  %31 = getelementptr inbounds %struct.dtTileCacheObstacle, ptr %30, i32 0, i32 5
  %32 = load i8, ptr %31, align 1
  %33 = zext i8 %32 to i32
  %34 = icmp eq i32 %33, 1
  br i1 %34, label %35, label %37

35:                                               ; preds = %25
  %36 = call noundef i32 @_Z6duRGBAiiii(i32 noundef 255, i32 noundef 255, i32 noundef 0, i32 noundef 128)
  store i32 %36, ptr %9, align 4
  br label %55

37:                                               ; preds = %25
  %38 = load ptr, ptr %6, align 8
  %39 = getelementptr inbounds %struct.dtTileCacheObstacle, ptr %38, i32 0, i32 5
  %40 = load i8, ptr %39, align 1
  %41 = zext i8 %40 to i32
  %42 = icmp eq i32 %41, 2
  br i1 %42, label %43, label %45

43:                                               ; preds = %37
  %44 = call noundef i32 @_Z6duRGBAiiii(i32 noundef 255, i32 noundef 192, i32 noundef 0, i32 noundef 192)
  store i32 %44, ptr %9, align 4
  br label %54

45:                                               ; preds = %37
  %46 = load ptr, ptr %6, align 8
  %47 = getelementptr inbounds %struct.dtTileCacheObstacle, ptr %46, i32 0, i32 5
  %48 = load i8, ptr %47, align 1
  %49 = zext i8 %48 to i32
  %50 = icmp eq i32 %49, 3
  br i1 %50, label %51, label %53

51:                                               ; preds = %45
  %52 = call noundef i32 @_Z6duRGBAiiii(i32 noundef 220, i32 noundef 0, i32 noundef 0, i32 noundef 128)
  store i32 %52, ptr %9, align 4
  br label %53

53:                                               ; preds = %51, %45
  br label %54

54:                                               ; preds = %53, %43
  br label %55

55:                                               ; preds = %54, %35
  %56 = load ptr, ptr %3, align 8
  %57 = getelementptr inbounds [3 x float], ptr %7, i64 0, i64 0
  %58 = load float, ptr %57, align 4
  %59 = getelementptr inbounds [3 x float], ptr %7, i64 0, i64 1
  %60 = load float, ptr %59, align 4
  %61 = getelementptr inbounds [3 x float], ptr %7, i64 0, i64 2
  %62 = load float, ptr %61, align 4
  %63 = getelementptr inbounds [3 x float], ptr %8, i64 0, i64 0
  %64 = load float, ptr %63, align 4
  %65 = getelementptr inbounds [3 x float], ptr %8, i64 0, i64 1
  %66 = load float, ptr %65, align 4
  %67 = getelementptr inbounds [3 x float], ptr %8, i64 0, i64 2
  %68 = load float, ptr %67, align 4
  %69 = load i32, ptr %9, align 4
  call void @_Z19duDebugDrawCylinderP11duDebugDrawffffffj(ptr noundef %56, float noundef %58, float noundef %60, float noundef %62, float noundef %64, float noundef %66, float noundef %68, i32 noundef %69)
  %70 = load ptr, ptr %3, align 8
  %71 = getelementptr inbounds [3 x float], ptr %7, i64 0, i64 0
  %72 = load float, ptr %71, align 4
  %73 = getelementptr inbounds [3 x float], ptr %7, i64 0, i64 1
  %74 = load float, ptr %73, align 4
  %75 = getelementptr inbounds [3 x float], ptr %7, i64 0, i64 2
  %76 = load float, ptr %75, align 4
  %77 = getelementptr inbounds [3 x float], ptr %8, i64 0, i64 0
  %78 = load float, ptr %77, align 4
  %79 = getelementptr inbounds [3 x float], ptr %8, i64 0, i64 1
  %80 = load float, ptr %79, align 4
  %81 = getelementptr inbounds [3 x float], ptr %8, i64 0, i64 2
  %82 = load float, ptr %81, align 4
  %83 = load i32, ptr %9, align 4
  %84 = call noundef i32 @_Z11duDarkenColj(i32 noundef %83)
  call void @_Z23duDebugDrawCylinderWireP11duDebugDrawffffffjf(ptr noundef %70, float noundef %72, float noundef %74, float noundef %76, float noundef %78, float noundef %80, float noundef %82, i32 noundef %84, float noundef 2.000000e+00)
  br label %85

85:                                               ; preds = %55, %24
  %86 = load i32, ptr %5, align 4
  %87 = add nsw i32 %86, 1
  store i32 %87, ptr %5, align 4
  br label %10, !llvm.loop !17

88:                                               ; preds = %10
  ret void
}