; Function Attrs: mustprogress uwtable
define dso_local void @_Z13drawObstaclesP11duDebugDrawPK11dtTileCache(ptr noundef %0, ptr noundef %1) local_unnamed_addr #5 {
  %3 = alloca [3 x float], align 4
  %4 = alloca [3 x float], align 4
  %5 = getelementptr inbounds i8, ptr %1, i64 88
  %6 = load i32, ptr %5, align 8
  %7 = icmp sgt i32 %6, 0
  br i1 %7, label %.lr.ph, label %._crit_edge

.lr.ph:                                           ; preds = %2
  %8 = getelementptr inbounds i8, ptr %1, i64 120
  %9 = getelementptr inbounds i8, ptr %3, i64 4
  %10 = getelementptr inbounds i8, ptr %3, i64 8
  %11 = getelementptr inbounds i8, ptr %4, i64 4
  %12 = getelementptr inbounds i8, ptr %4, i64 8
  br label %13

13:                                               ; preds = %.lr.ph, %41
  %14 = phi i32 [ %6, %.lr.ph ], [ %42, %41 ]
  %indvars.iv = phi i64 [ 0, %.lr.ph ], [ %indvars.iv.next, %41 ]
  %15 = load ptr, ptr %8, align 8
  %16 = getelementptr inbounds %struct.dtTileCacheObstacle, ptr %15, i64 %indvars.iv
  %17 = getelementptr inbounds i8, ptr %16, i64 99
  %18 = load i8, ptr %17, align 1
  %19 = icmp eq i8 %18, 0
  br i1 %19, label %41, label %20

20:                                               ; preds = %13
  call void @_ZNK11dtTileCache17getObstacleBoundsEPK19dtTileCacheObstaclePfS3_(ptr noundef nonnull align 8 dereferenceable(912) %1, ptr noundef nonnull %16, ptr noundef nonnull %3, ptr noundef nonnull %4)
  %21 = load i8, ptr %17, align 1
  %switch.tableidx = add i8 %21, -1
  %22 = icmp ult i8 %switch.tableidx, 3
  br i1 %22, label %switch.lookup, label %24

switch.lookup:                                    ; preds = %20
  %23 = zext nneg i8 %switch.tableidx to i64
  %switch.gep = getelementptr inbounds [3 x i32], ptr @switch.table._Z13drawObstaclesP11duDebugDrawPK11dtTileCache, i64 0, i64 %23
  %switch.load = load i32, ptr %switch.gep, align 4
  br label %24

24:                                               ; preds = %switch.lookup, %20
  %.0 = phi i32 [ 0, %20 ], [ %switch.load, %switch.lookup ]
  %25 = load float, ptr %3, align 4
  %26 = load float, ptr %9, align 4
  %27 = load float, ptr %10, align 4
  %28 = load float, ptr %4, align 4
  %29 = load float, ptr %11, align 4
  %30 = load float, ptr %12, align 4
  call void @_Z19duDebugDrawCylinderP11duDebugDrawffffffj(ptr noundef %0, float noundef %25, float noundef %26, float noundef %27, float noundef %28, float noundef %29, float noundef %30, i32 noundef %.0)
  %31 = load float, ptr %3, align 4
  %32 = load float, ptr %9, align 4
  %33 = load float, ptr %10, align 4
  %34 = load float, ptr %4, align 4
  %35 = load float, ptr %11, align 4
  %36 = load float, ptr %12, align 4
  %37 = lshr i32 %.0, 1
  %38 = and i32 %37, 32639
  %39 = and i32 %.0, -1073741824
  %40 = or disjoint i32 %38, %39
  call void @_Z23duDebugDrawCylinderWireP11duDebugDrawffffffjf(ptr noundef %0, float noundef %31, float noundef %32, float noundef %33, float noundef %34, float noundef %35, float noundef %36, i32 noundef %40, float noundef 2.000000e+00)
  %.pre = load i32, ptr %5, align 8
  br label %41

41:                                               ; preds = %13, %24
  %42 = phi i32 [ %14, %13 ], [ %.pre, %24 ]
  %indvars.iv.next = add nuw nsw i64 %indvars.iv, 1
  %43 = sext i32 %42 to i64
  %44 = icmp slt i64 %indvars.iv.next, %43
  br i1 %44, label %13, label %._crit_edge, !llvm.loop !17

._crit_edge:                                      ; preds = %41, %2
  ret void
}